; Function Attrs: mustprogress nofree norecurse nosync nounwind willreturn memory(read, inaccessiblemem: none) uwtable
define hidden noundef i32 @_ZN4lean13equiv_manager4findEj(ptr noundef nonnull readonly align 8 captures(none) dereferenceable(81) %0, i32 noundef %1) local_unnamed_addr #2 align 2 {
  %3 = load ptr, ptr %0, align 8, !tbaa !9
  br label %4

4:                                                ; preds = %4, %2
  %.08 = phi i32 [ %1, %2 ], [ %7, %4 ]
  %5 = zext i32 %.08 to i64
  %6 = getelementptr inbounds nuw %"struct.lean::equiv_manager::node", ptr %3, i64 %5
  %7 = load i32, ptr %6, align 4, !tbaa !11
  %.not = icmp eq i32 %7, %.08
  br i1 %.not, label %8, label %4

8:                                                ; preds = %4
  ret i32 %.08
}